
swap_IA32.o:     file format pe-i386


Disassembly of section .text:

00000000 <_main>:
   0:	55                   	push   %ebp
   1:	89 e5                	mov    %esp,%ebp
   3:	83 ec 28             	sub    $0x28,%esp
   6:	83 e4 f0             	and    $0xfffffff0,%esp
   9:	b8 00 00 00 00       	mov    $0x0,%eax
   e:	83 c0 0f             	add    $0xf,%eax
  11:	83 c0 0f             	add    $0xf,%eax
  14:	c1 e8 04             	shr    $0x4,%eax
  17:	c1 e0 04             	shl    $0x4,%eax
  1a:	89 45 f0             	mov    %eax,-0x10(%ebp)
  1d:	8b 45 f0             	mov    -0x10(%ebp),%eax
  20:	e8 00 00 00 00       	call   25 <_main+0x25>
  25:	e8 00 00 00 00       	call   2a <_main+0x2a>
  2a:	c7 45 fc cd 03 00 00 	movl   $0x3cd,-0x4(%ebp)
  31:	c7 45 f8 88 00 00 00 	movl   $0x88,-0x8(%ebp)
  38:	8b 45 fc             	mov    -0x4(%ebp),%eax
  3b:	89 45 f4             	mov    %eax,-0xc(%ebp)
  3e:	8b 45 f8             	mov    -0x8(%ebp),%eax
  41:	89 45 fc             	mov    %eax,-0x4(%ebp)
  44:	8b 45 f4             	mov    -0xc(%ebp),%eax
  47:	89 45 f8             	mov    %eax,-0x8(%ebp)
  4a:	8b 45 f8             	mov    -0x8(%ebp),%eax
  4d:	89 44 24 08          	mov    %eax,0x8(%esp)
  51:	8b 45 fc             	mov    -0x4(%ebp),%eax
  54:	89 44 24 04          	mov    %eax,0x4(%esp)
  58:	c7 04 24 00 00 00 00 	movl   $0x0,(%esp)
  5f:	e8 00 00 00 00       	call   64 <_main+0x64>
  64:	c9                   	leave  
  65:	c3                   	ret    
  66:	90                   	nop    
  67:	90                   	nop    

Disassembly of section .rdata:

00000000 <.rdata>:
   0:	61                   	popa   
   1:	3d 25 64 2c 20       	cmp    $0x202c6425,%eax
   6:	62 3d 25 64 0a 00    	bound  %edi,0xa6425
